; Function Attrs: mustprogress uwtable
define ptr @u_getTimeZoneFilesDirectory_77(ptr noundef %0) local_unnamed_addr #1 {
  %2 = load i32, ptr %0, align 4, !tbaa !13
  %3 = icmp slt i32 %2, 1
  br i1 %3, label %4, label %_ZN6icu_7713umtx_initOnceERNS_9UInitOnceEPFvR10UErrorCodeES3_.exit.thread

4:                                                ; preds = %1
  %5 = load atomic i32, ptr @gTimeZoneFilesInitOnce_77 acquire, align 4
  %.not11.i = icmp eq i32 %5, 2
  br i1 %.not11.i, label %10, label %6

6:                                                ; preds = %4
  %7 = tail call noundef signext i8 @_ZN6icu_7720umtx_initImplPreInitERNS_9UInitOnceE(ptr noundef nonnull align 4 dereferenceable(8) @gTimeZoneFilesInitOnce_77)
  %.not12.i = icmp eq i8 %7, 0
  br i1 %.not12.i, label %10, label %8

8:                                                ; preds = %6
  tail call fastcc void @_ZL21TimeZoneDataDirInitFnR10UErrorCode(ptr noundef nonnull align 4 dereferenceable(4) %0)
  %9 = load i32, ptr %0, align 4, !tbaa !13
  store i32 %9, ptr getelementptr inbounds nuw (i8, ptr @gTimeZoneFilesInitOnce_77, i64 4), align 4, !tbaa !45
  tail call void @_ZN6icu_7721umtx_initImplPostInitERNS_9UInitOnceE(ptr noundef nonnull align 4 dereferenceable(8) @gTimeZoneFilesInitOnce_77)
  br label %_ZN6icu_7713umtx_initOnceERNS_9UInitOnceEPFvR10UErrorCodeES3_.exit

10:                                               ; preds = %6, %4
  %11 = load i32, ptr getelementptr inbounds nuw (i8, ptr @gTimeZoneFilesInitOnce_77, i64 4), align 4, !tbaa !45
  %12 = icmp slt i32 %11, 1
  br i1 %12, label %_ZN6icu_7713umtx_initOnceERNS_9UInitOnceEPFvR10UErrorCodeES3_.exit, label %13

13:                                               ; preds = %10
  store i32 %11, ptr %0, align 4, !tbaa !13
  br label %_ZN6icu_7713umtx_initOnceERNS_9UInitOnceEPFvR10UErrorCodeES3_.exit.thread

_ZN6icu_7713umtx_initOnceERNS_9UInitOnceEPFvR10UErrorCodeES3_.exit: ; preds = %8, %10
  %.pr = load i32, ptr %0, align 4, !tbaa !13
  %14 = icmp sgt i32 %.pr, 0
  br i1 %14, label %_ZN6icu_7713umtx_initOnceERNS_9UInitOnceEPFvR10UErrorCodeES3_.exit.thread, label %15

15:                                               ; preds = %_ZN6icu_7713umtx_initOnceERNS_9UInitOnceEPFvR10UErrorCodeES3_.exit
  %16 = load ptr, ptr @_ZL23gTimeZoneFilesDirectory, align 8, !tbaa !41
  %17 = load ptr, ptr %16, align 8, !tbaa !3
  br label %_ZN6icu_7713umtx_initOnceERNS_9UInitOnceEPFvR10UErrorCodeES3_.exit.thread

_ZN6icu_7713umtx_initOnceERNS_9UInitOnceEPFvR10UErrorCodeES3_.exit.thread: ; preds = %13, %1, %_ZN6icu_7713umtx_initOnceERNS_9UInitOnceEPFvR10UErrorCodeES3_.exit, %15
  %18 = phi ptr [ %17, %15 ], [ @.str.5, %_ZN6icu_7713umtx_initOnceERNS_9UInitOnceEPFvR10UErrorCodeES3_.exit ], [ @.str.5, %1 ], [ @.str.5, %13 ]
  ret ptr %18
}